target datalayout = "e-m:e-p270:32:32-p271:32:32-p272:64:64-i64:64-i128:128-f80:128-n8:16:32:64-S128"
target triple = "x86_64-pc-linux-gnu"

@fp_gdk_pixbuf_get_from_drawable = internal global ptr null, align 8
@fp_gdk_pixbuf_get_pixels = internal global ptr null, align 8
@fp_gdk_pixbuf_get_rowstride = internal global ptr null, align 8
@gtk2_white_pixmap = internal global ptr null, align 8
@gtk2_black_pixmap = internal global ptr null, align 8
@gtk2_white_pixbuf = internal global ptr null, align 8
@gtk2_black_pixbuf = internal global ptr null, align 8

; Function Attrs: nounwind uwtable
define internal i32 @gtk2_copy_image(ptr noundef %0, i32 noundef %1, i32 noundef %2) #0 {
  %4 = alloca ptr, align 8
  %5 = alloca i32, align 4
  %6 = alloca i32, align 4
  %7 = alloca i32, align 4
  %8 = alloca i32, align 4
  %9 = alloca i32, align 4
  %10 = alloca i32, align 4
  %11 = alloca i32, align 4
  %12 = alloca ptr, align 8
  %13 = alloca ptr, align 8
  %14 = alloca i32, align 4
  %15 = alloca i32, align 4
  %16 = alloca i32, align 4
  %17 = alloca i32, align 4
  %18 = alloca i32, align 4
  %19 = alloca i32, align 4
  %20 = alloca i32, align 4
  store ptr %0, ptr %4, align 8
  store i32 %1, ptr %5, align 4
  store i32 %2, ptr %6, align 4
  store i32 1, ptr %16, align 4
  store i32 1, ptr %17, align 4
  %21 = load ptr, ptr @fp_gdk_pixbuf_get_from_drawable, align 8
  %22 = load ptr, ptr @gtk2_white_pixbuf, align 8
  %23 = load ptr, ptr @gtk2_white_pixmap, align 8
  %24 = load i32, ptr %5, align 4
  %25 = load i32, ptr %6, align 4
  %26 = call ptr %21(ptr noundef %22, ptr noundef %23, ptr noundef null, i32 noundef 0, i32 noundef 0, i32 noundef 0, i32 noundef 0, i32 noundef %24, i32 noundef %25)
  %27 = load ptr, ptr @fp_gdk_pixbuf_get_from_drawable, align 8
  %28 = load ptr, ptr @gtk2_black_pixbuf, align 8
  %29 = load ptr, ptr @gtk2_black_pixmap, align 8
  %30 = load i32, ptr %5, align 4
  %31 = load i32, ptr %6, align 4
  %32 = call ptr %27(ptr noundef %28, ptr noundef %29, ptr noundef null, i32 noundef 0, i32 noundef 0, i32 noundef 0, i32 noundef 0, i32 noundef %30, i32 noundef %31)
  %33 = load ptr, ptr @fp_gdk_pixbuf_get_pixels, align 8
  %34 = load ptr, ptr @gtk2_white_pixbuf, align 8
  %35 = call ptr %33(ptr noundef %34)
  store ptr %35, ptr %12, align 8
  %36 = load ptr, ptr @fp_gdk_pixbuf_get_pixels, align 8
  %37 = load ptr, ptr @gtk2_black_pixbuf, align 8
  %38 = call ptr %36(ptr noundef %37)
  store ptr %38, ptr %13, align 8
  %39 = load ptr, ptr @fp_gdk_pixbuf_get_rowstride, align 8
  %40 = load ptr, ptr @gtk2_black_pixbuf, align 8
  %41 = call i32 %39(ptr noundef %40)
  store i32 %41, ptr %14, align 4
  %42 = load i32, ptr %14, align 4
  %43 = load i32, ptr %5, align 4
  %44 = mul nsw i32 %43, 4
  %45 = sub nsw i32 %42, %44
  store i32 %45, ptr %15, align 4
  %46 = load i32, ptr %15, align 4
  %47 = icmp sge i32 %46, 0
  br i1 %47, label %48, label %146

48:                                               ; preds = %3
  %49 = load i32, ptr %14, align 4
  %50 = icmp sgt i32 %49, 0
  br i1 %50, label %51, label %146

51:                                               ; preds = %48
  store i32 0, ptr %7, align 4
  br label %52

52:                                               ; preds = %142, %51
  %53 = load i32, ptr %7, align 4
  %54 = load i32, ptr %6, align 4
  %55 = icmp slt i32 %53, %54
  br i1 %55, label %56, label %145

56:                                               ; preds = %52
  store i32 0, ptr %8, align 4
  br label %57

57:                                               ; preds = %130, %56
  %58 = load i32, ptr %8, align 4
  %59 = load i32, ptr %5, align 4
  %60 = icmp slt i32 %58, %59
  br i1 %60, label %61, label %133

61:                                               ; preds = %57
  %62 = load ptr, ptr %12, align 8
  %63 = getelementptr inbounds i8, ptr %62, i32 1
  store ptr %63, ptr %12, align 8
  %64 = load i8, ptr %62, align 1
  %65 = zext i8 %64 to i32
  store i32 %65, ptr %18, align 4
  %66 = load ptr, ptr %13, align 8
  %67 = getelementptr inbounds i8, ptr %66, i32 1
  store ptr %67, ptr %13, align 8
  %68 = load i8, ptr %66, align 1
  %69 = zext i8 %68 to i32
  store i32 %69, ptr %19, align 4
  %70 = load i32, ptr %19, align 4
  %71 = add nsw i32 255, %70
  %72 = load i32, ptr %18, align 4
  %73 = sub nsw i32 %71, %72
  store i32 %73, ptr %20, align 4
  %74 = load i32, ptr %20, align 4
  switch i32 %74, label %94 [
    i32 0, label %75
    i32 255, label %80
  ]

75:                                               ; preds = %61
  store i32 0, ptr %11, align 4
  store i32 0, ptr %10, align 4
  store i32 0, ptr %9, align 4
  %76 = load ptr, ptr %13, align 8
  %77 = getelementptr inbounds i8, ptr %76, i64 3
  store ptr %77, ptr %13, align 8
  %78 = load ptr, ptr %12, align 8
  %79 = getelementptr inbounds i8, ptr %78, i64 3
  store ptr %79, ptr %12, align 8
  store i32 0, ptr %16, align 4
  br label %117

80:                                               ; preds = %61
  %81 = load i32, ptr %19, align 4
  store i32 %81, ptr %9, align 4
  %82 = load ptr, ptr %13, align 8
  %83 = getelementptr inbounds i8, ptr %82, i32 1
  store ptr %83, ptr %13, align 8
  %84 = load i8, ptr %82, align 1
  %85 = zext i8 %84 to i32
  store i32 %85, ptr %10, align 4
  %86 = load ptr, ptr %13, align 8
  %87 = getelementptr inbounds i8, ptr %86, i32 1
  store ptr %87, ptr %13, align 8
  %88 = load i8, ptr %86, align 1
  %89 = zext i8 %88 to i32
  store i32 %89, ptr %11, align 4
  %90 = load ptr, ptr %13, align 8
  %91 = getelementptr inbounds i8, ptr %90, i32 1
  store ptr %91, ptr %13, align 8
  %92 = load ptr, ptr %12, align 8
  %93 = getelementptr inbounds i8, ptr %92, i64 3
  store ptr %93, ptr %12, align 8
  br label %117

94:                                               ; preds = %61
  %95 = load i32, ptr %19, align 4
  %96 = mul nsw i32 255, %95
  %97 = load i32, ptr %20, align 4
  %98 = sdiv i32 %96, %97
  store i32 %98, ptr %9, align 4
  %99 = load ptr, ptr %13, align 8
  %100 = getelementptr inbounds i8, ptr %99, i32 1
  store ptr %100, ptr %13, align 8
  %101 = load i8, ptr %99, align 1
  %102 = zext i8 %101 to i32
  %103 = mul nsw i32 255, %102
  %104 = load i32, ptr %20, align 4
  %105 = sdiv i32 %103, %104
  store i32 %105, ptr %10, align 4
  %106 = load ptr, ptr %13, align 8
  %107 = getelementptr inbounds i8, ptr %106, i32 1
  store ptr %107, ptr %13, align 8
  %108 = load i8, ptr %106, align 1
  %109 = zext i8 %108 to i32
  %110 = mul nsw i32 255, %109
  %111 = load i32, ptr %20, align 4
  %112 = sdiv i32 %110, %111
  store i32 %112, ptr %11, align 4
  %113 = load ptr, ptr %13, align 8
  %114 = getelementptr inbounds i8, ptr %113, i32 1
  store ptr %114, ptr %13, align 8
  %115 = load ptr, ptr %12, align 8
  %116 = getelementptr inbounds i8, ptr %115, i64 3
  store ptr %116, ptr %12, align 8
  store i32 0, ptr %16, align 4
  store i32 0, ptr %17, align 4
  br label %117

117:                                              ; preds = %94, %80, %75
  %118 = load i32, ptr %20, align 4
  %119 = shl i32 %118, 24
  %120 = load i32, ptr %9, align 4
  %121 = shl i32 %120, 16
  %122 = or i32 %119, %121
  %123 = load i32, ptr %10, align 4
  %124 = shl i32 %123, 8
  %125 = or i32 %122, %124
  %126 = load i32, ptr %11, align 4
  %127 = or i32 %125, %126
  %128 = load ptr, ptr %4, align 8
  %129 = getelementptr inbounds i32, ptr %128, i32 1
  store ptr %129, ptr %4, align 8
  store i32 %127, ptr %128, align 4
  br label %130

130:                                              ; preds = %117
  %131 = load i32, ptr %8, align 4
  %132 = add nsw i32 %131, 1
  store i32 %132, ptr %8, align 4
  br label %57, !llvm.loop !9

133:                                              ; preds = %57
  %134 = load i32, ptr %15, align 4
  %135 = load ptr, ptr %12, align 8
  %136 = sext i32 %134 to i64
  %137 = getelementptr inbounds i8, ptr %135, i64 %136
  store ptr %137, ptr %12, align 8
  %138 = load i32, ptr %15, align 4
  %139 = load ptr, ptr %13, align 8
  %140 = sext i32 %138 to i64
  %141 = getelementptr inbounds i8, ptr %139, i64 %140
  store ptr %141, ptr %13, align 8
  br label %142

142:                                              ; preds = %133
  %143 = load i32, ptr %7, align 4
  %144 = add nsw i32 %143, 1
  store i32 %144, ptr %7, align 4
  br label %52, !llvm.loop !10

145:                                              ; preds = %52
  br label %146

146:                                              ; preds = %145, %48, %3
  %147 = load i32, ptr %16, align 4
  %148 = icmp ne i32 %147, 0
  br i1 %148, label %149, label %150

149:                                              ; preds = %146
  br label %154

150:                                              ; preds = %146
  %151 = load i32, ptr %17, align 4
  %152 = icmp ne i32 %151, 0
  %153 = select i1 %152, i64 2, i64 3
  br label %154

154:                                              ; preds = %150, %149
  %155 = phi i64 [ 1, %149 ], [ %153, %150 ]
  %156 = trunc i64 %155 to i32
  ret i32 %156
}