; Function Attrs: nounwind uwtable
define internal range(i32 1, 4) i32 @gtk2_copy_image(ptr nocapture noundef writeonly %0, i32 noundef %1, i32 noundef %2) #0 {
  %4 = load ptr, ptr @fp_gdk_pixbuf_get_from_drawable, align 8
  %5 = load ptr, ptr @gtk2_white_pixbuf, align 8
  %6 = load ptr, ptr @gtk2_white_pixmap, align 8
  %7 = tail call ptr %4(ptr noundef %5, ptr noundef %6, ptr noundef null, i32 noundef 0, i32 noundef 0, i32 noundef 0, i32 noundef 0, i32 noundef %1, i32 noundef %2) #18
  %8 = load ptr, ptr @fp_gdk_pixbuf_get_from_drawable, align 8
  %9 = load ptr, ptr @gtk2_black_pixbuf, align 8
  %10 = load ptr, ptr @gtk2_black_pixmap, align 8
  %11 = tail call ptr %8(ptr noundef %9, ptr noundef %10, ptr noundef null, i32 noundef 0, i32 noundef 0, i32 noundef 0, i32 noundef 0, i32 noundef %1, i32 noundef %2) #18
  %12 = load ptr, ptr @fp_gdk_pixbuf_get_pixels, align 8
  %13 = load ptr, ptr @gtk2_white_pixbuf, align 8
  %14 = tail call ptr %12(ptr noundef %13) #18
  %15 = load ptr, ptr @fp_gdk_pixbuf_get_pixels, align 8
  %16 = load ptr, ptr @gtk2_black_pixbuf, align 8
  %17 = tail call ptr %15(ptr noundef %16) #18
  %18 = load ptr, ptr @fp_gdk_pixbuf_get_rowstride, align 8
  %19 = load ptr, ptr @gtk2_black_pixbuf, align 8
  %20 = tail call i32 %18(ptr noundef %19) #18
  %21 = shl nsw i32 %1, 2
  %22 = sub nsw i32 %20, %21
  %23 = icmp sgt i32 %22, -1
  %24 = icmp sgt i32 %20, 0
  %or.cond = and i1 %24, %23
  %25 = icmp sgt i32 %2, 0
  %or.cond104 = and i1 %or.cond, %25
  br i1 %or.cond104, label %.preheader.lr.ph, label %.thread71

.preheader.lr.ph:                                 ; preds = %3
  %26 = icmp sgt i32 %1, 0
  %27 = zext nneg i32 %22 to i64
  br i1 %26, label %.preheader.us, label %.thread71

.preheader.us:                                    ; preds = %.preheader.lr.ph, %._crit_edge.us
  %.097.us = phi ptr [ %59, %._crit_edge.us ], [ %0, %.preheader.lr.ph ]
  %.04596.us = phi i32 [ %63, %._crit_edge.us ], [ 0, %.preheader.lr.ph ]
  %.04795.us = phi i32 [ %.2.us, %._crit_edge.us ], [ 1, %.preheader.lr.ph ]
  %.04994.us = phi i32 [ %.251.us, %._crit_edge.us ], [ 1, %.preheader.lr.ph ]
  %.05593.us = phi ptr [ %62, %._crit_edge.us ], [ %17, %.preheader.lr.ph ]
  %.05892.us = phi ptr [ %61, %._crit_edge.us ], [ %14, %.preheader.lr.ph ]
  br label %28

28:                                               ; preds = %.preheader.us, %52
  %.187.us = phi ptr [ %.097.us, %.preheader.us ], [ %59, %52 ]
  %.04686.us = phi i32 [ 0, %.preheader.us ], [ %60, %52 ]
  %.14885.us = phi i32 [ %.04795.us, %.preheader.us ], [ %.2.us, %52 ]
  %.15084.us = phi i32 [ %.04994.us, %.preheader.us ], [ %.251.us, %52 ]
  %.15683.us = phi ptr [ %.05593.us, %.preheader.us ], [ %.257.us, %52 ]
  %.15982.us = phi ptr [ %.05892.us, %.preheader.us ], [ %.260.us, %52 ]
  %29 = load i8, ptr %.15982.us, align 1
  %30 = getelementptr inbounds i8, ptr %.15683.us, i64 1
  %31 = load i8, ptr %.15683.us, align 1
  %32 = zext i8 %31 to i32
  %33 = xor i8 %29, -1
  %34 = zext i8 %33 to i32
  %35 = add nuw nsw i32 %34, %32
  switch i32 %35, label %42 [
    i32 0, label %52
    i32 255, label %36
  ]

36:                                               ; preds = %28
  %37 = getelementptr inbounds i8, ptr %.15683.us, i64 2
  %38 = load i8, ptr %30, align 1
  %39 = zext i8 %38 to i32
  %40 = load i8, ptr %37, align 1
  %41 = zext i8 %40 to i32
  br label %52

42:                                               ; preds = %28
  %43 = zext i8 %31 to i16
  %.lhs.trunc.us = mul nuw i16 %43, 255
  %.rhs.trunc.us = trunc nuw nsw i32 %35 to i16
  %44 = udiv i16 %.lhs.trunc.us, %.rhs.trunc.us
  %.zext.us = zext i16 %44 to i32
  %45 = getelementptr inbounds i8, ptr %.15683.us, i64 2
  %46 = load i8, ptr %30, align 1
  %47 = zext i8 %46 to i16
  %.lhs.trunc75.us = mul nuw i16 %47, 255
  %48 = udiv i16 %.lhs.trunc75.us, %.rhs.trunc.us
  %.zext77.us = zext i16 %48 to i32
  %49 = load i8, ptr %45, align 1
  %50 = zext i8 %49 to i16
  %.lhs.trunc78.us = mul nuw i16 %50, 255
  %51 = udiv i16 %.lhs.trunc78.us, %.rhs.trunc.us
  %.zext80.us = zext i16 %51 to i32
  br label %52

52:                                               ; preds = %42, %36, %28
  %.061.us = phi i32 [ %.zext80.us, %42 ], [ %41, %36 ], [ %35, %28 ]
  %.054.us = phi i32 [ %.zext77.us, %42 ], [ %39, %36 ], [ %35, %28 ]
  %.053.us = phi i32 [ %.zext.us, %42 ], [ %32, %36 ], [ %35, %28 ]
  %.251.us = phi i32 [ 0, %42 ], [ %.15084.us, %36 ], [ %35, %28 ]
  %.2.us = phi i32 [ 0, %42 ], [ %.14885.us, %36 ], [ %.14885.us, %28 ]
  %.257.us = getelementptr inbounds i8, ptr %.15683.us, i64 4
  %.260.us = getelementptr inbounds i8, ptr %.15982.us, i64 4
  %53 = shl i32 %35, 24
  %54 = shl nuw i32 %.053.us, 16
  %55 = shl nuw nsw i32 %.054.us, 8
  %56 = or disjoint i32 %.061.us, %53
  %57 = or i32 %56, %55
  %58 = or i32 %57, %54
  %59 = getelementptr inbounds i8, ptr %.187.us, i64 4
  store i32 %58, ptr %.187.us, align 4
  %60 = add nuw nsw i32 %.04686.us, 1
  %exitcond.not = icmp eq i32 %60, %1
  br i1 %exitcond.not, label %._crit_edge.us, label %28, !llvm.loop !9

._crit_edge.us:                                   ; preds = %52
  %61 = getelementptr inbounds i8, ptr %.260.us, i64 %27
  %62 = getelementptr inbounds i8, ptr %.257.us, i64 %27
  %63 = add nuw nsw i32 %.04596.us, 1
  %exitcond103.not = icmp eq i32 %63, %2
  br i1 %exitcond103.not, label %._crit_edge98.loopexit, label %.preheader.us, !llvm.loop !10

._crit_edge98.loopexit:                           ; preds = %._crit_edge.us
  %64 = icmp eq i32 %.251.us, 0
  %65 = icmp eq i32 %.2.us, 0
  %66 = select i1 %65, i32 3, i32 2
  %67 = select i1 %64, i32 %66, i32 1
  br label %.thread71

.thread71:                                        ; preds = %._crit_edge98.loopexit, %.preheader.lr.ph, %3
  %68 = phi i32 [ 1, %3 ], [ %67, %._crit_edge98.loopexit ], [ 1, %.preheader.lr.ph ]
  ret i32 %68
}